target datalayout = "e-m:e-p270:32:32-p271:32:32-p272:64:64-i64:64-i128:128-f80:128-n8:16:32:64-S128"
target triple = "x86_64-pc-linux-gnu"

%struct.expert_field = type { i32, i32 }

@ei_gsm_a_rr_extraneous_data = internal global %struct.expert_field zeroinitializer, align 4
@ei_gsm_a_rr_missing_mandatory_element = internal global %struct.expert_field zeroinitializer, align 4
@.str.83 = private unnamed_addr constant [62 x i8] c"Missing Mandatory element %s%s, rest of dissection is suspect\00", align 1
@.str.84 = private unnamed_addr constant [1 x i8] zeroinitializer, align 1
@.str.89 = private unnamed_addr constant [25 x i8] c" - Mode of Channel Set 2\00", align 1
@.str.90 = private unnamed_addr constant [25 x i8] c" - Mode of Channel Set 3\00", align 1
@.str.91 = private unnamed_addr constant [25 x i8] c" - Mode of Channel Set 4\00", align 1
@.str.92 = private unnamed_addr constant [25 x i8] c" - Mode of Channel Set 5\00", align 1
@.str.93 = private unnamed_addr constant [25 x i8] c" - Mode of Channel Set 6\00", align 1
@.str.94 = private unnamed_addr constant [25 x i8] c" - Mode of Channel Set 7\00", align 1
@.str.95 = private unnamed_addr constant [25 x i8] c" - Mode of Channel Set 8\00", align 1
@.str.1858 = private unnamed_addr constant [25 x i8] c" - Mode of Channel Set 1\00", align 1

; Function Attrs: null_pointer_is_valid sspstrong uwtable
define internal void @dtap_rr_conf_change_cmd(ptr noundef %0, ptr noundef %1, ptr noundef %2, i32 noundef %3, i32 noundef %4) #1 {
  %6 = alloca ptr, align 8
  %7 = alloca ptr, align 8
  %8 = alloca ptr, align 8
  %9 = alloca i32, align 4
  %10 = alloca i32, align 4
  %11 = alloca i32, align 4
  %12 = alloca i32, align 4
  %13 = alloca i32, align 4
  %14 = alloca i32, align 4
  store ptr %0, ptr %6, align 8
  store ptr %1, ptr %7, align 8
  store ptr %2, ptr %8, align 8
  store i32 %3, ptr %9, align 4
  store i32 %4, ptr %10, align 4
  call void @llvm.lifetime.start.p0(i64 4, ptr %11) #11
  call void @llvm.lifetime.start.p0(i64 4, ptr %12) #11
  call void @llvm.lifetime.start.p0(i64 4, ptr %13) #11
  %15 = load i32, ptr %9, align 4
  store i32 %15, ptr %11, align 4
  %16 = load i32, ptr %10, align 4
  store i32 %16, ptr %13, align 4
  %17 = load i32, ptr %13, align 4
  %18 = icmp sgt i32 %17, 0
  br i1 %18, label %19, label %35

19:                                               ; preds = %5
  %20 = load ptr, ptr %6, align 8
  %21 = load ptr, ptr %7, align 8
  %22 = load ptr, ptr %8, align 8
  %23 = load i32, ptr %11, align 4
  %24 = load i32, ptr %13, align 4
  %25 = call zeroext i16 @elem_lv(ptr noundef %20, ptr noundef %21, ptr noundef %22, i32 noundef 3, i32 noundef 38, i32 noundef %23, i32 noundef %24, ptr noundef null)
  %26 = zext i16 %25 to i32
  store i32 %26, ptr %12, align 4
  %27 = icmp ugt i32 %26, 0
  br i1 %27, label %28, label %35

28:                                               ; preds = %19
  %29 = load i32, ptr %12, align 4
  %30 = load i32, ptr %11, align 4
  %31 = add i32 %30, %29
  store i32 %31, ptr %11, align 4
  %32 = load i32, ptr %12, align 4
  %33 = load i32, ptr %13, align 4
  %34 = sub i32 %33, %32
  store i32 %34, ptr %13, align 4
  br label %42

35:                                               ; preds = %19, %5
  %36 = load ptr, ptr %7, align 8
  %37 = load ptr, ptr %8, align 8
  %38 = load ptr, ptr %6, align 8
  %39 = load i32, ptr %11, align 4
  %40 = call ptr @get_gsm_a_msg_string(i32 noundef 3, i32 noundef 38)
  %41 = call ptr (ptr, ptr, ptr, ptr, i32, i32, ptr, ...) @proto_tree_add_expert_format(ptr noundef %36, ptr noundef %37, ptr noundef @ei_gsm_a_rr_missing_mandatory_element, ptr noundef %38, i32 noundef %39, i32 noundef 0, ptr noundef @.str.83, ptr noundef %40, ptr noundef @.str.84)
  br label %42

42:                                               ; preds = %35, %28
  %43 = load i32, ptr %13, align 4
  %44 = icmp sle i32 %43, 0
  br i1 %44, label %45, label %46

45:                                               ; preds = %42
  store i32 1, ptr %14, align 4
  br label %219

46:                                               ; preds = %42
  %47 = load ptr, ptr %6, align 8
  %48 = load ptr, ptr %7, align 8
  %49 = load ptr, ptr %8, align 8
  %50 = load i32, ptr %11, align 4
  %51 = call zeroext i16 @elem_tv(ptr noundef %47, ptr noundef %48, ptr noundef %49, i8 noundef zeroext 99, i32 noundef 3, i32 noundef 12, i32 noundef %50, ptr noundef @.str.1858)
  %52 = zext i16 %51 to i32
  store i32 %52, ptr %12, align 4
  %53 = icmp ugt i32 %52, 0
  br i1 %53, label %54, label %61

54:                                               ; preds = %46
  %55 = load i32, ptr %12, align 4
  %56 = load i32, ptr %11, align 4
  %57 = add i32 %56, %55
  store i32 %57, ptr %11, align 4
  %58 = load i32, ptr %12, align 4
  %59 = load i32, ptr %13, align 4
  %60 = sub i32 %59, %58
  store i32 %60, ptr %13, align 4
  br label %61

61:                                               ; preds = %54, %46
  %62 = load i32, ptr %13, align 4
  %63 = icmp sle i32 %62, 0
  br i1 %63, label %64, label %65

64:                                               ; preds = %61
  store i32 1, ptr %14, align 4
  br label %219

65:                                               ; preds = %61
  %66 = load ptr, ptr %6, align 8
  %67 = load ptr, ptr %7, align 8
  %68 = load ptr, ptr %8, align 8
  %69 = load i32, ptr %11, align 4
  %70 = call zeroext i16 @elem_tv(ptr noundef %66, ptr noundef %67, ptr noundef %68, i8 noundef zeroext 17, i32 noundef 3, i32 noundef 12, i32 noundef %69, ptr noundef @.str.89)
  %71 = zext i16 %70 to i32
  store i32 %71, ptr %12, align 4
  %72 = icmp ugt i32 %71, 0
  br i1 %72, label %73, label %80

73:                                               ; preds = %65
  %74 = load i32, ptr %12, align 4
  %75 = load i32, ptr %11, align 4
  %76 = add i32 %75, %74
  store i32 %76, ptr %11, align 4
  %77 = load i32, ptr %12, align 4
  %78 = load i32, ptr %13, align 4
  %79 = sub i32 %78, %77
  store i32 %79, ptr %13, align 4
  br label %80

80:                                               ; preds = %73, %65
  %81 = load i32, ptr %13, align 4
  %82 = icmp sle i32 %81, 0
  br i1 %82, label %83, label %84

83:                                               ; preds = %80
  store i32 1, ptr %14, align 4
  br label %219

84:                                               ; preds = %80
  %85 = load ptr, ptr %6, align 8
  %86 = load ptr, ptr %7, align 8
  %87 = load ptr, ptr %8, align 8
  %88 = load i32, ptr %11, align 4
  %89 = call zeroext i16 @elem_tv(ptr noundef %85, ptr noundef %86, ptr noundef %87, i8 noundef zeroext 19, i32 noundef 3, i32 noundef 12, i32 noundef %88, ptr noundef @.str.90)
  %90 = zext i16 %89 to i32
  store i32 %90, ptr %12, align 4
  %91 = icmp ugt i32 %90, 0
  br i1 %91, label %92, label %99

92:                                               ; preds = %84
  %93 = load i32, ptr %12, align 4
  %94 = load i32, ptr %11, align 4
  %95 = add i32 %94, %93
  store i32 %95, ptr %11, align 4
  %96 = load i32, ptr %12, align 4
  %97 = load i32, ptr %13, align 4
  %98 = sub i32 %97, %96
  store i32 %98, ptr %13, align 4
  br label %99

99:                                               ; preds = %92, %84
  %100 = load i32, ptr %13, align 4
  %101 = icmp sle i32 %100, 0
  br i1 %101, label %102, label %103

102:                                              ; preds = %99
  store i32 1, ptr %14, align 4
  br label %219

103:                                              ; preds = %99
  %104 = load ptr, ptr %6, align 8
  %105 = load ptr, ptr %7, align 8
  %106 = load ptr, ptr %8, align 8
  %107 = load i32, ptr %11, align 4
  %108 = call zeroext i16 @elem_tv(ptr noundef %104, ptr noundef %105, ptr noundef %106, i8 noundef zeroext 20, i32 noundef 3, i32 noundef 12, i32 noundef %107, ptr noundef @.str.91)
  %109 = zext i16 %108 to i32
  store i32 %109, ptr %12, align 4
  %110 = icmp ugt i32 %109, 0
  br i1 %110, label %111, label %118

111:                                              ; preds = %103
  %112 = load i32, ptr %12, align 4
  %113 = load i32, ptr %11, align 4
  %114 = add i32 %113, %112
  store i32 %114, ptr %11, align 4
  %115 = load i32, ptr %12, align 4
  %116 = load i32, ptr %13, align 4
  %117 = sub i32 %116, %115
  store i32 %117, ptr %13, align 4
  br label %118

118:                                              ; preds = %111, %103
  %119 = load i32, ptr %13, align 4
  %120 = icmp sle i32 %119, 0
  br i1 %120, label %121, label %122

121:                                              ; preds = %118
  store i32 1, ptr %14, align 4
  br label %219

122:                                              ; preds = %118
  %123 = load ptr, ptr %6, align 8
  %124 = load ptr, ptr %7, align 8
  %125 = load ptr, ptr %8, align 8
  %126 = load i32, ptr %11, align 4
  %127 = call zeroext i16 @elem_tv(ptr noundef %123, ptr noundef %124, ptr noundef %125, i8 noundef zeroext 21, i32 noundef 3, i32 noundef 12, i32 noundef %126, ptr noundef @.str.92)
  %128 = zext i16 %127 to i32
  store i32 %128, ptr %12, align 4
  %129 = icmp ugt i32 %128, 0
  br i1 %129, label %130, label %137

130:                                              ; preds = %122
  %131 = load i32, ptr %12, align 4
  %132 = load i32, ptr %11, align 4
  %133 = add i32 %132, %131
  store i32 %133, ptr %11, align 4
  %134 = load i32, ptr %12, align 4
  %135 = load i32, ptr %13, align 4
  %136 = sub i32 %135, %134
  store i32 %136, ptr %13, align 4
  br label %137

137:                                              ; preds = %130, %122
  %138 = load i32, ptr %13, align 4
  %139 = icmp sle i32 %138, 0
  br i1 %139, label %140, label %141

140:                                              ; preds = %137
  store i32 1, ptr %14, align 4
  br label %219

141:                                              ; preds = %137
  %142 = load ptr, ptr %6, align 8
  %143 = load ptr, ptr %7, align 8
  %144 = load ptr, ptr %8, align 8
  %145 = load i32, ptr %11, align 4
  %146 = call zeroext i16 @elem_tv(ptr noundef %142, ptr noundef %143, ptr noundef %144, i8 noundef zeroext 22, i32 noundef 3, i32 noundef 12, i32 noundef %145, ptr noundef @.str.93)
  %147 = zext i16 %146 to i32
  store i32 %147, ptr %12, align 4
  %148 = icmp ugt i32 %147, 0
  br i1 %148, label %149, label %156

149:                                              ; preds = %141
  %150 = load i32, ptr %12, align 4
  %151 = load i32, ptr %11, align 4
  %152 = add i32 %151, %150
  store i32 %152, ptr %11, align 4
  %153 = load i32, ptr %12, align 4
  %154 = load i32, ptr %13, align 4
  %155 = sub i32 %154, %153
  store i32 %155, ptr %13, align 4
  br label %156

156:                                              ; preds = %149, %141
  %157 = load i32, ptr %13, align 4
  %158 = icmp sle i32 %157, 0
  br i1 %158, label %159, label %160

159:                                              ; preds = %156
  store i32 1, ptr %14, align 4
  br label %219

160:                                              ; preds = %156
  %161 = load ptr, ptr %6, align 8
  %162 = load ptr, ptr %7, align 8
  %163 = load ptr, ptr %8, align 8
  %164 = load i32, ptr %11, align 4
  %165 = call zeroext i16 @elem_tv(ptr noundef %161, ptr noundef %162, ptr noundef %163, i8 noundef zeroext 23, i32 noundef 3, i32 noundef 12, i32 noundef %164, ptr noundef @.str.94)
  %166 = zext i16 %165 to i32
  store i32 %166, ptr %12, align 4
  %167 = icmp ugt i32 %166, 0
  br i1 %167, label %168, label %175

168:                                              ; preds = %160
  %169 = load i32, ptr %12, align 4
  %170 = load i32, ptr %11, align 4
  %171 = add i32 %170, %169
  store i32 %171, ptr %11, align 4
  %172 = load i32, ptr %12, align 4
  %173 = load i32, ptr %13, align 4
  %174 = sub i32 %173, %172
  store i32 %174, ptr %13, align 4
  br label %175

175:                                              ; preds = %168, %160
  %176 = load i32, ptr %13, align 4
  %177 = icmp sle i32 %176, 0
  br i1 %177, label %178, label %179

178:                                              ; preds = %175
  store i32 1, ptr %14, align 4
  br label %219

179:                                              ; preds = %175
  %180 = load ptr, ptr %6, align 8
  %181 = load ptr, ptr %7, align 8
  %182 = load ptr, ptr %8, align 8
  %183 = load i32, ptr %11, align 4
  %184 = call zeroext i16 @elem_tv(ptr noundef %180, ptr noundef %181, ptr noundef %182, i8 noundef zeroext 24, i32 noundef 3, i32 noundef 12, i32 noundef %183, ptr noundef @.str.95)
  %185 = zext i16 %184 to i32
  store i32 %185, ptr %12, align 4
  %186 = icmp ugt i32 %185, 0
  br i1 %186, label %187, label %194

187:                                              ; preds = %179
  %188 = load i32, ptr %12, align 4
  %189 = load i32, ptr %11, align 4
  %190 = add i32 %189, %188
  store i32 %190, ptr %11, align 4
  %191 = load i32, ptr %12, align 4
  %192 = load i32, ptr %13, align 4
  %193 = sub i32 %192, %191
  store i32 %193, ptr %13, align 4
  br label %194

194:                                              ; preds = %187, %179
  %195 = load i32, ptr %10, align 4
  %196 = load i32, ptr %11, align 4
  %197 = load i32, ptr %9, align 4
  %198 = sub i32 %196, %197
  %199 = icmp ugt i32 %195, %198
  br i1 %199, label %200, label %218

200:                                              ; preds = %194
  %201 = load ptr, ptr %7, align 8
  %202 = load ptr, ptr %8, align 8
  %203 = load ptr, ptr %6, align 8
  %204 = load i32, ptr %11, align 4
  %205 = load i32, ptr %10, align 4
  %206 = load i32, ptr %11, align 4
  %207 = load i32, ptr %9, align 4
  %208 = sub i32 %206, %207
  %209 = sub i32 %205, %208
  %210 = call ptr @proto_tree_add_expert(ptr noundef %201, ptr noundef %202, ptr noundef @ei_gsm_a_rr_extraneous_data, ptr noundef %203, i32 noundef %204, i32 noundef %209)
  %211 = load i32, ptr %10, align 4
  %212 = load i32, ptr %11, align 4
  %213 = load i32, ptr %9, align 4
  %214 = sub i32 %212, %213
  %215 = sub i32 %211, %214
  %216 = load i32, ptr %11, align 4
  %217 = add i32 %216, %215
  store i32 %217, ptr %11, align 4
  br label %218

218:                                              ; preds = %200, %194
  store i32 0, ptr %14, align 4
  br label %219

219:                                              ; preds = %218, %178, %159, %140, %121, %102, %83, %64, %45
  call void @llvm.lifetime.end.p0(i64 4, ptr %13) #11
  call void @llvm.lifetime.end.p0(i64 4, ptr %12) #11
  call void @llvm.lifetime.end.p0(i64 4, ptr %11) #11
  %220 = load i32, ptr %14, align 4
  switch i32 %220, label %222 [
    i32 0, label %221
    i32 1, label %221
  ]

221:                                              ; preds = %219, %219
  ret void

222:                                              ; preds = %219
  unreachable
}