; Function Attrs: null_pointer_is_valid sspstrong uwtable
define internal void @dtap_rr_conf_change_cmd(ptr noundef %0, ptr noundef %1, ptr noundef %2, i32 noundef %3, i32 noundef %4) #3 {
  %6 = icmp sgt i32 %4, 0
  br i1 %6, label %7, label %13

7:                                                ; preds = %5
  %8 = tail call zeroext i16 @elem_lv(ptr noundef %0, ptr noundef %1, ptr noundef %2, i32 noundef 3, i32 noundef 38, i32 noundef %3, i32 noundef %4, ptr noundef null)
  %.not = icmp eq i16 %8, 0
  br i1 %.not, label %13, label %9

9:                                                ; preds = %7
  %10 = zext i16 %8 to i32
  %11 = add i32 %3, %10
  %12 = sub nsw i32 %4, %10
  br label %16

13:                                               ; preds = %7, %5
  %14 = tail call ptr @get_gsm_a_msg_string(i32 noundef 3, i32 noundef 38)
  %15 = tail call ptr (ptr, ptr, ptr, ptr, i32, i32, ptr, ...) @proto_tree_add_expert_format(ptr noundef %1, ptr noundef %2, ptr noundef nonnull @ei_gsm_a_rr_missing_mandatory_element, ptr noundef %0, i32 noundef %3, i32 noundef 0, ptr noundef nonnull @.str.83, ptr noundef %14, ptr noundef nonnull @.str.84)
  br label %16

16:                                               ; preds = %13, %9
  %.0101 = phi i32 [ %11, %9 ], [ %3, %13 ]
  %.0 = phi i32 [ %12, %9 ], [ %4, %13 ]
  %17 = icmp slt i32 %.0, 1
  br i1 %17, label %68, label %18

18:                                               ; preds = %16
  %19 = tail call zeroext i16 @elem_tv(ptr noundef %0, ptr noundef %1, ptr noundef %2, i8 noundef zeroext 99, i32 noundef 3, i32 noundef 12, i32 noundef %.0101, ptr noundef nonnull @.str.1858)
  %20 = zext i16 %19 to i32
  %21 = sub nsw i32 %.0, %20
  %22 = icmp slt i32 %21, 1
  br i1 %22, label %68, label %23

23:                                               ; preds = %18
  %24 = add i32 %.0101, %20
  %25 = tail call zeroext i16 @elem_tv(ptr noundef %0, ptr noundef %1, ptr noundef %2, i8 noundef zeroext 17, i32 noundef 3, i32 noundef 12, i32 noundef %24, ptr noundef nonnull @.str.89)
  %26 = zext i16 %25 to i32
  %27 = sub nsw i32 %21, %26
  %28 = icmp slt i32 %27, 1
  br i1 %28, label %68, label %29

29:                                               ; preds = %23
  %30 = add i32 %24, %26
  %31 = tail call zeroext i16 @elem_tv(ptr noundef %0, ptr noundef %1, ptr noundef %2, i8 noundef zeroext 19, i32 noundef 3, i32 noundef 12, i32 noundef %30, ptr noundef nonnull @.str.90)
  %32 = zext i16 %31 to i32
  %33 = sub nsw i32 %27, %32
  %34 = icmp slt i32 %33, 1
  br i1 %34, label %68, label %35

35:                                               ; preds = %29
  %36 = add i32 %30, %32
  %37 = tail call zeroext i16 @elem_tv(ptr noundef %0, ptr noundef %1, ptr noundef %2, i8 noundef zeroext 20, i32 noundef 3, i32 noundef 12, i32 noundef %36, ptr noundef nonnull @.str.91)
  %38 = zext i16 %37 to i32
  %39 = sub nsw i32 %33, %38
  %40 = icmp slt i32 %39, 1
  br i1 %40, label %68, label %41

41:                                               ; preds = %35
  %42 = add i32 %36, %38
  %43 = tail call zeroext i16 @elem_tv(ptr noundef %0, ptr noundef %1, ptr noundef %2, i8 noundef zeroext 21, i32 noundef 3, i32 noundef 12, i32 noundef %42, ptr noundef nonnull @.str.92)
  %44 = zext i16 %43 to i32
  %45 = sub nsw i32 %39, %44
  %46 = icmp slt i32 %45, 1
  br i1 %46, label %68, label %47

47:                                               ; preds = %41
  %48 = add i32 %42, %44
  %49 = tail call zeroext i16 @elem_tv(ptr noundef %0, ptr noundef %1, ptr noundef %2, i8 noundef zeroext 22, i32 noundef 3, i32 noundef 12, i32 noundef %48, ptr noundef nonnull @.str.93)
  %50 = zext i16 %49 to i32
  %51 = sub nsw i32 %45, %50
  %52 = icmp slt i32 %51, 1
  br i1 %52, label %68, label %53

53:                                               ; preds = %47
  %54 = add i32 %48, %50
  %55 = tail call zeroext i16 @elem_tv(ptr noundef %0, ptr noundef %1, ptr noundef %2, i8 noundef zeroext 23, i32 noundef 3, i32 noundef 12, i32 noundef %54, ptr noundef nonnull @.str.94)
  %.not127 = icmp ne i16 %55, 0
  %56 = zext i16 %55 to i32
  %57 = icmp samesign ule i32 %51, %56
  %.7 = select i1 %.not127, i1 %57, i1 false
  br i1 %.7, label %68, label %58

58:                                               ; preds = %53
  %59 = add i32 %54, %56
  %60 = tail call zeroext i16 @elem_tv(ptr noundef %0, ptr noundef %1, ptr noundef %2, i8 noundef zeroext 24, i32 noundef 3, i32 noundef 12, i32 noundef %59, ptr noundef nonnull @.str.95)
  %61 = zext i16 %60 to i32
  %62 = add i32 %59, %61
  %63 = sub i32 %62, %3
  %64 = icmp ugt i32 %4, %63
  br i1 %64, label %65, label %68

65:                                               ; preds = %58
  %66 = sub nuw i32 %4, %63
  %67 = tail call ptr @proto_tree_add_expert(ptr noundef %1, ptr noundef %2, ptr noundef nonnull @ei_gsm_a_rr_extraneous_data, ptr noundef %0, i32 noundef %62, i32 noundef %66)
  br label %68

68:                                               ; preds = %58, %65, %53, %47, %41, %35, %29, %23, %18, %16
  ret void
}